target datalayout = "e-m:e-p270:32:32-p271:32:32-p272:64:64-i64:64-i128:128-f80:128-n8:16:32:64-S128"
target triple = "x86_64-unknown-linux-gnu"

%class.btHeightfieldTerrainShape = type { %class.btConcaveShape.base, %class.btVector3, %class.btVector3, %class.btVector3, i32, i32, float, float, float, float, float, %union.anon.0, i32, i8, i8, i8, i8, i32, %class.btVector3, [4 x i8], %class.btAlignedObjectArray, i32, i32, i32, float, ptr }
%class.btConcaveShape.base = type <{ %class.btCollisionShape, float }>
%class.btCollisionShape = type { ptr, i32, ptr, i32, i32 }
%union.anon.0 = type { ptr }
%class.btVector3 = type { [4 x float] }
%class.btAlignedObjectArray = type <{ %class.btAlignedAllocator, [3 x i8], i32, i32, [4 x i8], ptr, i8, [7 x i8] }>
%class.btAlignedAllocator = type { i8 }

; Function Attrs: mustprogress nounwind uwtable
define linkonce_odr dso_local noundef nonnull align 4 dereferenceable(16) ptr @_ZN9btVector3mLERKS_(ptr noundef nonnull align 4 dereferenceable(16) %this, ptr noundef nonnull align 4 dereferenceable(16) %v) #1 comdat align 2 {
entry:
  %this.addr = alloca ptr, align 8
  %v.addr = alloca ptr, align 8
  store ptr %this, ptr %this.addr, align 8
  store ptr %v, ptr %v.addr, align 8
  %this1 = load ptr, ptr %this.addr, align 8
  %0 = load ptr, ptr %v.addr, align 8
  %m_floats = getelementptr inbounds %class.btVector3, ptr %0, i32 0, i32 0
  %arrayidx = getelementptr inbounds [4 x float], ptr %m_floats, i64 0, i64 0
  %1 = load float, ptr %arrayidx, align 4
  %m_floats2 = getelementptr inbounds %class.btVector3, ptr %this1, i32 0, i32 0
  %arrayidx3 = getelementptr inbounds [4 x float], ptr %m_floats2, i64 0, i64 0
  %2 = load float, ptr %arrayidx3, align 4
  %mul = fmul float %2, %1
  store float %mul, ptr %arrayidx3, align 4
  %3 = load ptr, ptr %v.addr, align 8
  %m_floats4 = getelementptr inbounds %class.btVector3, ptr %3, i32 0, i32 0
  %arrayidx5 = getelementptr inbounds [4 x float], ptr %m_floats4, i64 0, i64 1
  %4 = load float, ptr %arrayidx5, align 4
  %m_floats6 = getelementptr inbounds %class.btVector3, ptr %this1, i32 0, i32 0
  %arrayidx7 = getelementptr inbounds [4 x float], ptr %m_floats6, i64 0, i64 1
  %5 = load float, ptr %arrayidx7, align 4
  %mul8 = fmul float %5, %4
  store float %mul8, ptr %arrayidx7, align 4
  %6 = load ptr, ptr %v.addr, align 8
  %m_floats9 = getelementptr inbounds %class.btVector3, ptr %6, i32 0, i32 0
  %arrayidx10 = getelementptr inbounds [4 x float], ptr %m_floats9, i64 0, i64 2
  %7 = load float, ptr %arrayidx10, align 4
  %m_floats11 = getelementptr inbounds %class.btVector3, ptr %this1, i32 0, i32 0
  %arrayidx12 = getelementptr inbounds [4 x float], ptr %m_floats11, i64 0, i64 2
  %8 = load float, ptr %arrayidx12, align 4
  %mul13 = fmul float %8, %7
  store float %mul13, ptr %arrayidx12, align 4
  ret ptr %this1
}

; Function Attrs: mustprogress nounwind uwtable
define linkonce_odr dso_local noundef nonnull align 4 dereferenceable(4) ptr @_ZNK9btVector34getZEv(ptr noundef nonnull align 4 dereferenceable(16) %this) #1 comdat align 2 {
entry:
  %this.addr = alloca ptr, align 8
  store ptr %this, ptr %this.addr, align 8
  %this1 = load ptr, ptr %this.addr, align 8
  %m_floats = getelementptr inbounds %class.btVector3, ptr %this1, i32 0, i32 0
  %arrayidx = getelementptr inbounds [4 x float], ptr %m_floats, i64 0, i64 2
  ret ptr %arrayidx
}

; Function Attrs: mustprogress nounwind uwtable
define linkonce_odr dso_local noundef nonnull align 4 dereferenceable(4) ptr @_ZNK9btVector34getYEv(ptr noundef nonnull align 4 dereferenceable(16) %this) #1 comdat align 2 {
entry:
  %this.addr = alloca ptr, align 8
  store ptr %this, ptr %this.addr, align 8
  %this1 = load ptr, ptr %this.addr, align 8
  %m_floats = getelementptr inbounds %class.btVector3, ptr %this1, i32 0, i32 0
  %arrayidx = getelementptr inbounds [4 x float], ptr %m_floats, i64 0, i64 1
  ret ptr %arrayidx
}

; Function Attrs: mustprogress nounwind uwtable
define linkonce_odr dso_local void @_ZN9btVector38setValueERKfS1_S1_(ptr noundef nonnull align 4 dereferenceable(16) %this, ptr noundef nonnull align 4 dereferenceable(4) %_x, ptr noundef nonnull align 4 dereferenceable(4) %_y, ptr noundef nonnull align 4 dereferenceable(4) %_z) #1 comdat align 2 {
entry:
  %this.addr = alloca ptr, align 8
  %_x.addr = alloca ptr, align 8
  %_y.addr = alloca ptr, align 8
  %_z.addr = alloca ptr, align 8
  store ptr %this, ptr %this.addr, align 8
  store ptr %_x, ptr %_x.addr, align 8
  store ptr %_y, ptr %_y.addr, align 8
  store ptr %_z, ptr %_z.addr, align 8
  %this1 = load ptr, ptr %this.addr, align 8
  %0 = load ptr, ptr %_x.addr, align 8
  %1 = load float, ptr %0, align 4
  %m_floats = getelementptr inbounds %class.btVector3, ptr %this1, i32 0, i32 0
  %arrayidx = getelementptr inbounds [4 x float], ptr %m_floats, i64 0, i64 0
  store float %1, ptr %arrayidx, align 4
  %2 = load ptr, ptr %_y.addr, align 8
  %3 = load float, ptr %2, align 4
  %m_floats2 = getelementptr inbounds %class.btVector3, ptr %this1, i32 0, i32 0
  %arrayidx3 = getelementptr inbounds [4 x float], ptr %m_floats2, i64 0, i64 1
  store float %3, ptr %arrayidx3, align 4
  %4 = load ptr, ptr %_z.addr, align 8
  %5 = load float, ptr %4, align 4
  %m_floats4 = getelementptr inbounds %class.btVector3, ptr %this1, i32 0, i32 0
  %arrayidx5 = getelementptr inbounds [4 x float], ptr %m_floats4, i64 0, i64 2
  store float %5, ptr %arrayidx5, align 4
  %m_floats6 = getelementptr inbounds %class.btVector3, ptr %this1, i32 0, i32 0
  %arrayidx7 = getelementptr inbounds [4 x float], ptr %m_floats6, i64 0, i64 3
  store float 0.000000e+00, ptr %arrayidx7, align 4
  ret void
}

; Function Attrs: mustprogress nounwind uwtable
define linkonce_odr dso_local noundef nonnull align 4 dereferenceable(4) ptr @_ZNK9btVector34getXEv(ptr noundef nonnull align 4 dereferenceable(16) %this) #1 comdat align 2 {
entry:
  %this.addr = alloca ptr, align 8
  store ptr %this, ptr %this.addr, align 8
  %this1 = load ptr, ptr %this.addr, align 8
  %m_floats = getelementptr inbounds %class.btVector3, ptr %this1, i32 0, i32 0
  %arrayidx = getelementptr inbounds [4 x float], ptr %m_floats, i64 0, i64 0
  ret ptr %arrayidx
}

; Function Attrs: mustprogress uwtable
define dso_local void @_ZNK25btHeightfieldTerrainShape9getVertexEiiR9btVector3(ptr noundef nonnull align 8 dereferenceable(208) %this, i32 noundef %x, i32 noundef %y, ptr noundef nonnull align 4 dereferenceable(16) %vertex) #2 align 2 {
entry:
  %this.addr = alloca ptr, align 8
  %x.addr = alloca i32, align 4
  %y.addr = alloca i32, align 4
  %vertex.addr = alloca ptr, align 8
  %height = alloca float, align 4
  %ref.tmp = alloca float, align 4
  %ref.tmp3 = alloca float, align 4
  %ref.tmp4 = alloca float, align 4
  %ref.tmp10 = alloca float, align 4
  %ref.tmp16 = alloca float, align 4
  %ref.tmp20 = alloca float, align 4
  %ref.tmp27 = alloca float, align 4
  %ref.tmp33 = alloca float, align 4
  %ref.tmp39 = alloca float, align 4
  store ptr %this, ptr %this.addr, align 8
  store i32 %x, ptr %x.addr, align 4
  store i32 %y, ptr %y.addr, align 4
  store ptr %vertex, ptr %vertex.addr, align 8
  %this1 = load ptr, ptr %this.addr, align 8
  %0 = load i32, ptr %x.addr, align 4
  %1 = load i32, ptr %y.addr, align 4
  %vtable = load ptr, ptr %this1, align 8
  %vfn = getelementptr inbounds ptr, ptr %vtable, i64 17
  %2 = load ptr, ptr %vfn, align 8
  %call = call noundef float %2(ptr noundef nonnull align 8 dereferenceable(208) %this1, i32 noundef %0, i32 noundef %1)
  store float %call, ptr %height, align 4
  %m_upAxis = getelementptr inbounds %class.btHeightfieldTerrainShape, ptr %this1, i32 0, i32 17
  %3 = load i32, ptr %m_upAxis, align 8
  switch i32 %3, label %sw.default [
    i32 0, label %sw.bb
    i32 1, label %sw.bb9
    i32 2, label %sw.bb26
  ]

sw.bb:                                            ; preds = %entry
  %4 = load ptr, ptr %vertex.addr, align 8
  %5 = load float, ptr %height, align 4
  %m_localOrigin = getelementptr inbounds %class.btHeightfieldTerrainShape, ptr %this1, i32 0, i32 3
  %call2 = call noundef nonnull align 4 dereferenceable(4) ptr @_ZNK9btVector34getXEv(ptr noundef nonnull align 4 dereferenceable(16) %m_localOrigin)
  %6 = load float, ptr %call2, align 4
  %sub = fsub float %5, %6
  store float %sub, ptr %ref.tmp, align 4
  %m_width = getelementptr inbounds %class.btHeightfieldTerrainShape, ptr %this1, i32 0, i32 8
  %7 = load float, ptr %m_width, align 4
  %fneg = fneg float %7
  %div = fdiv float %fneg, 2.000000e+00
  %8 = load i32, ptr %x.addr, align 4
  %conv = sitofp i32 %8 to float
  %add = fadd float %div, %conv
  store float %add, ptr %ref.tmp3, align 4
  %m_length = getelementptr inbounds %class.btHeightfieldTerrainShape, ptr %this1, i32 0, i32 9
  %9 = load float, ptr %m_length, align 8
  %fneg5 = fneg float %9
  %div6 = fdiv float %fneg5, 2.000000e+00
  %10 = load i32, ptr %y.addr, align 4
  %conv7 = sitofp i32 %10 to float
  %add8 = fadd float %div6, %conv7
  store float %add8, ptr %ref.tmp4, align 4
  call void @_ZN9btVector38setValueERKfS1_S1_(ptr noundef nonnull align 4 dereferenceable(16) %4, ptr noundef nonnull align 4 dereferenceable(4) %ref.tmp, ptr noundef nonnull align 4 dereferenceable(4) %ref.tmp3, ptr noundef nonnull align 4 dereferenceable(4) %ref.tmp4)
  br label %sw.epilog

sw.bb9:                                           ; preds = %entry
  %11 = load ptr, ptr %vertex.addr, align 8
  %m_width11 = getelementptr inbounds %class.btHeightfieldTerrainShape, ptr %this1, i32 0, i32 8
  %12 = load float, ptr %m_width11, align 4
  %fneg12 = fneg float %12
  %div13 = fdiv float %fneg12, 2.000000e+00
  %13 = load i32, ptr %x.addr, align 4
  %conv14 = sitofp i32 %13 to float
  %add15 = fadd float %div13, %conv14
  store float %add15, ptr %ref.tmp10, align 4
  %14 = load float, ptr %height, align 4
  %m_localOrigin17 = getelementptr inbounds %class.btHeightfieldTerrainShape, ptr %this1, i32 0, i32 3
  %call18 = call noundef nonnull align 4 dereferenceable(4) ptr @_ZNK9btVector34getYEv(ptr noundef nonnull align 4 dereferenceable(16) %m_localOrigin17)
  %15 = load float, ptr %call18, align 4
  %sub19 = fsub float %14, %15
  store float %sub19, ptr %ref.tmp16, align 4
  %m_length21 = getelementptr inbounds %class.btHeightfieldTerrainShape, ptr %this1, i32 0, i32 9
  %16 = load float, ptr %m_length21, align 8
  %fneg22 = fneg float %16
  %div23 = fdiv float %fneg22, 2.000000e+00
  %17 = load i32, ptr %y.addr, align 4
  %conv24 = sitofp i32 %17 to float
  %add25 = fadd float %div23, %conv24
  store float %add25, ptr %ref.tmp20, align 4
  call void @_ZN9btVector38setValueERKfS1_S1_(ptr noundef nonnull align 4 dereferenceable(16) %11, ptr noundef nonnull align 4 dereferenceable(4) %ref.tmp10, ptr noundef nonnull align 4 dereferenceable(4) %ref.tmp16, ptr noundef nonnull align 4 dereferenceable(4) %ref.tmp20)
  br label %sw.epilog

sw.bb26:                                          ; preds = %entry
  %18 = load ptr, ptr %vertex.addr, align 8
  %m_width28 = getelementptr inbounds %class.btHeightfieldTerrainShape, ptr %this1, i32 0, i32 8
  %19 = load float, ptr %m_width28, align 4
  %fneg29 = fneg float %19
  %div30 = fdiv float %fneg29, 2.000000e+00
  %20 = load i32, ptr %x.addr, align 4
  %conv31 = sitofp i32 %20 to float
  %add32 = fadd float %div30, %conv31
  store float %add32, ptr %ref.tmp27, align 4
  %m_length34 = getelementptr inbounds %class.btHeightfieldTerrainShape, ptr %this1, i32 0, i32 9
  %21 = load float, ptr %m_length34, align 8
  %fneg35 = fneg float %21
  %div36 = fdiv float %fneg35, 2.000000e+00
  %22 = load i32, ptr %y.addr, align 4
  %conv37 = sitofp i32 %22 to float
  %add38 = fadd float %div36, %conv37
  store float %add38, ptr %ref.tmp33, align 4
  %23 = load float, ptr %height, align 4
  %m_localOrigin40 = getelementptr inbounds %class.btHeightfieldTerrainShape, ptr %this1, i32 0, i32 3
  %call41 = call noundef nonnull align 4 dereferenceable(4) ptr @_ZNK9btVector34getZEv(ptr noundef nonnull align 4 dereferenceable(16) %m_localOrigin40)
  %24 = load float, ptr %call41, align 4
  %sub42 = fsub float %23, %24
  store float %sub42, ptr %ref.tmp39, align 4
  call void @_ZN9btVector38setValueERKfS1_S1_(ptr noundef nonnull align 4 dereferenceable(16) %18, ptr noundef nonnull align 4 dereferenceable(4) %ref.tmp27, ptr noundef nonnull align 4 dereferenceable(4) %ref.tmp33, ptr noundef nonnull align 4 dereferenceable(4) %ref.tmp39)
  br label %sw.epilog

sw.default:                                       ; preds = %entry
  br label %sw.epilog

sw.epilog:                                        ; preds = %sw.default, %sw.bb26, %sw.bb9, %sw.bb
  %m_localScaling = getelementptr inbounds %class.btHeightfieldTerrainShape, ptr %this1, i32 0, i32 18
  %25 = load ptr, ptr %vertex.addr, align 8
  %call43 = call noundef nonnull align 4 dereferenceable(16) ptr @_ZN9btVector3mLERKS_(ptr noundef nonnull align 4 dereferenceable(16) %25, ptr noundef nonnull align 4 dereferenceable(16) %m_localScaling)
  ret void
}