; Function Attrs: mustprogress uwtable
define dso_local void @_ZNK25btHeightfieldTerrainShape9getVertexEiiR9btVector3(ptr noundef nonnull align 8 dereferenceable(208) %this, i32 noundef %x, i32 noundef %y, ptr nocapture noundef nonnull align 4 dereferenceable(16) %vertex) local_unnamed_addr #0 align 2 {
entry:
  %vtable = load ptr, ptr %this, align 8
  %vfn = getelementptr inbounds i8, ptr %vtable, i64 136
  %0 = load ptr, ptr %vfn, align 8
  %call = tail call noundef float %0(ptr noundef nonnull align 8 dereferenceable(208) %this, i32 noundef %x, i32 noundef %y)
  %m_upAxis = getelementptr inbounds i8, ptr %this, i64 128
  %1 = load i32, ptr %m_upAxis, align 8
  switch i32 %1, label %entry.sw.epilog_crit_edge [
    i32 0, label %sw.bb
    i32 1, label %sw.bb9
    i32 2, label %sw.bb26
  ]

entry.sw.epilog_crit_edge:                        ; preds = %entry
  %2 = load <2 x float>, ptr %vertex, align 4
  %arrayidx12.i.phi.trans.insert = getelementptr inbounds i8, ptr %vertex, i64 8
  %.pre22 = load float, ptr %arrayidx12.i.phi.trans.insert, align 4
  br label %sw.epilog

sw.bb:                                            ; preds = %entry
  %m_localOrigin = getelementptr inbounds i8, ptr %this, i64 68
  %3 = load <4 x float>, ptr %m_localOrigin, align 4
  %4 = shufflevector <4 x float> %3, <4 x float> poison, <2 x i32> <i32 0, i32 poison>
  %m_width = getelementptr inbounds i8, ptr %this, i64 100
  %5 = load float, ptr %m_width, align 4
  %div = fmul float %5, 5.000000e-01
  %conv = sitofp i32 %x to float
  %6 = insertelement <2 x float> poison, float %call, i64 0
  %7 = insertelement <2 x float> %6, float %conv, i64 1
  %8 = insertelement <2 x float> %4, float %div, i64 1
  %9 = fsub <2 x float> %7, %8
  %m_length = getelementptr inbounds i8, ptr %this, i64 104
  %10 = load float, ptr %m_length, align 8
  %div6 = fmul float %10, 5.000000e-01
  %conv7 = sitofp i32 %y to float
  %11 = fsub float %conv7, %div6
  store <2 x float> %9, ptr %vertex, align 4
  %arrayidx5.i = getelementptr inbounds i8, ptr %vertex, i64 8
  store float %11, ptr %arrayidx5.i, align 4
  %arrayidx7.i = getelementptr inbounds i8, ptr %vertex, i64 12
  store float 0.000000e+00, ptr %arrayidx7.i, align 4
  br label %sw.epilog

sw.bb9:                                           ; preds = %entry
  %m_width11 = getelementptr inbounds i8, ptr %this, i64 100
  %12 = load float, ptr %m_width11, align 4
  %div13 = fmul float %12, 5.000000e-01
  %conv14 = sitofp i32 %x to float
  %arrayidx.i = getelementptr inbounds i8, ptr %this, i64 72
  %13 = load float, ptr %arrayidx.i, align 8
  %14 = insertelement <2 x float> poison, float %conv14, i64 0
  %15 = insertelement <2 x float> %14, float %call, i64 1
  %16 = insertelement <2 x float> poison, float %div13, i64 0
  %17 = insertelement <2 x float> %16, float %13, i64 1
  %18 = fsub <2 x float> %15, %17
  %m_length21 = getelementptr inbounds i8, ptr %this, i64 104
  %19 = load float, ptr %m_length21, align 8
  %div23 = fmul float %19, 5.000000e-01
  %conv24 = sitofp i32 %y to float
  %20 = fsub float %conv24, %div23
  store <2 x float> %18, ptr %vertex, align 4
  %arrayidx5.i13 = getelementptr inbounds i8, ptr %vertex, i64 8
  store float %20, ptr %arrayidx5.i13, align 4
  %arrayidx7.i14 = getelementptr inbounds i8, ptr %vertex, i64 12
  store float 0.000000e+00, ptr %arrayidx7.i14, align 4
  br label %sw.epilog

sw.bb26:                                          ; preds = %entry
  %m_width28 = getelementptr inbounds i8, ptr %this, i64 100
  %21 = insertelement <2 x i32> poison, i32 %x, i64 0
  %22 = insertelement <2 x i32> %21, i32 %y, i64 1
  %23 = sitofp <2 x i32> %22 to <2 x float>
  %24 = load <2 x float>, ptr %m_width28, align 4
  %25 = fmul <2 x float> %24, <float 5.000000e-01, float 5.000000e-01>
  %26 = fsub <2 x float> %23, %25
  %arrayidx.i15 = getelementptr inbounds i8, ptr %this, i64 76
  %27 = load float, ptr %arrayidx.i15, align 4
  %sub42 = fsub float %call, %27
  store <2 x float> %26, ptr %vertex, align 4
  %arrayidx5.i17 = getelementptr inbounds i8, ptr %vertex, i64 8
  store float %sub42, ptr %arrayidx5.i17, align 4
  %arrayidx7.i18 = getelementptr inbounds i8, ptr %vertex, i64 12
  store float 0.000000e+00, ptr %arrayidx7.i18, align 4
  br label %sw.epilog

sw.epilog:                                        ; preds = %entry.sw.epilog_crit_edge, %sw.bb26, %sw.bb9, %sw.bb
  %28 = phi float [ %.pre22, %entry.sw.epilog_crit_edge ], [ %sub42, %sw.bb26 ], [ %20, %sw.bb9 ], [ %11, %sw.bb ]
  %29 = phi <2 x float> [ %2, %entry.sw.epilog_crit_edge ], [ %26, %sw.bb26 ], [ %18, %sw.bb9 ], [ %9, %sw.bb ]
  %m_localScaling = getelementptr inbounds i8, ptr %this, i64 132
  %30 = load float, ptr %m_localScaling, align 4
  %31 = extractelement <2 x float> %29, i64 0
  %mul.i = fmul float %30, %31
  store float %mul.i, ptr %vertex, align 4
  %arrayidx5.i19 = getelementptr inbounds i8, ptr %this, i64 136
  %32 = load float, ptr %arrayidx5.i19, align 8
  %arrayidx7.i20 = getelementptr inbounds i8, ptr %vertex, i64 4
  %33 = extractelement <2 x float> %29, i64 1
  %mul8.i = fmul float %32, %33
  store float %mul8.i, ptr %arrayidx7.i20, align 4
  %arrayidx10.i = getelementptr inbounds i8, ptr %this, i64 140
  %34 = load float, ptr %arrayidx10.i, align 4
  %arrayidx12.i = getelementptr inbounds i8, ptr %vertex, i64 8
  %mul13.i = fmul float %34, %28
  store float %mul13.i, ptr %arrayidx12.i, align 4
  ret void
}